target datalayout = "e-m:e-p270:32:32-p271:32:32-p272:64:64-i64:64-i128:128-f80:128-n8:16:32:64-S128"
target triple = "x86_64-pc-linux-gnu"

@.str.52 = private unnamed_addr constant [3 x i8] c"%f\00", align 1

; Function Attrs: nounwind uwtable
define internal i32 @greater(ptr noundef %0, ptr noundef %1, ptr noundef %2) #1 {
  %4 = alloca i32, align 4
  %5 = alloca ptr, align 8
  %6 = alloca ptr, align 8
  %7 = alloca ptr, align 8
  %8 = alloca float, align 4
  %9 = alloca float, align 4
  %10 = alloca i32, align 4
  store ptr %0, ptr %5, align 8, !tbaa !22
  store ptr %1, ptr %6, align 8, !tbaa !74
  store ptr %2, ptr %7, align 8, !tbaa !74
  call void @llvm.lifetime.start.p0(i64 4, ptr %8) #11
  call void @llvm.lifetime.start.p0(i64 4, ptr %9) #11
  %11 = load ptr, ptr %6, align 8, !tbaa !74
  %12 = call i32 (ptr, ptr, ...) @__isoc99_sscanf(ptr noundef %11, ptr noundef @.str.52, ptr noundef %8) #11
  %13 = load ptr, ptr %7, align 8, !tbaa !74
  %14 = call i32 (ptr, ptr, ...) @__isoc99_sscanf(ptr noundef %13, ptr noundef @.str.52, ptr noundef %9) #11
  %15 = add nsw i32 %12, %14
  %16 = icmp ne i32 %15, 2
  br i1 %16, label %17, label %18

17:                                               ; preds = %3
  store i32 0, ptr %4, align 4
  store i32 1, ptr %10, align 4
  br label %24

18:                                               ; preds = %3
  %19 = load float, ptr %9, align 4, !tbaa !78
  %20 = load float, ptr %8, align 4, !tbaa !78
  %21 = fsub nsz float %19, %20
  %22 = fcmp nsz olt float %21, 0x3E80000000000000
  %23 = zext i1 %22 to i32
  store i32 %23, ptr %4, align 4
  store i32 1, ptr %10, align 4
  br label %24

24:                                               ; preds = %18, %17
  call void @llvm.lifetime.end.p0(i64 4, ptr %9) #11
  call void @llvm.lifetime.end.p0(i64 4, ptr %8) #11
  %25 = load i32, ptr %4, align 4
  ret i32 %25
}