; Function Attrs: nofree nounwind uwtable
define internal range(i32 0, 2) i32 @greater(ptr readnone captures(none) %0, ptr noundef readonly captures(none) %1, ptr noundef readonly captures(none) %2) #8 {
  %4 = alloca float, align 4
  %5 = alloca float, align 4
  call void @llvm.lifetime.start.p0(i64 4, ptr nonnull %4) #14
  call void @llvm.lifetime.start.p0(i64 4, ptr nonnull %5) #14
  %6 = call i32 (ptr, ptr, ...) @__isoc99_sscanf(ptr noundef %1, ptr noundef nonnull @.str.52, ptr noundef nonnull %4) #14
  %7 = call i32 (ptr, ptr, ...) @__isoc99_sscanf(ptr noundef %2, ptr noundef nonnull @.str.52, ptr noundef nonnull %5) #14
  %8 = add nsw i32 %7, %6
  %.not = icmp eq i32 %8, 2
  br i1 %.not, label %9, label %15

9:                                                ; preds = %3
  %10 = load float, ptr %5, align 4, !tbaa !64
  %11 = load float, ptr %4, align 4, !tbaa !64
  %12 = fsub nsz float %10, %11
  %13 = fcmp nsz olt float %12, 0x3E80000000000000
  %14 = zext i1 %13 to i32
  br label %15

15:                                               ; preds = %3, %9
  %.0 = phi i32 [ %14, %9 ], [ 0, %3 ]
  call void @llvm.lifetime.end.p0(i64 4, ptr nonnull %5) #14
  call void @llvm.lifetime.end.p0(i64 4, ptr nonnull %4) #14
  ret i32 %.0
}